target datalayout = "e-m:e-p270:32:32-p271:32:32-p272:64:64-i64:64-i128:128-f80:128-n8:16:32:64-S128"
target triple = "x86_64-pc-linux-gnu"

%struct.mbedtls_ecp_point = type { %struct.mbedtls_mpi, %struct.mbedtls_mpi, %struct.mbedtls_mpi }
%struct.mbedtls_mpi = type { ptr, i16, i16 }
%struct.mbedtls_ecp_group = type { i32, %struct.mbedtls_mpi, %struct.mbedtls_mpi, %struct.mbedtls_mpi, %struct.mbedtls_ecp_point, %struct.mbedtls_mpi, i64, i64, i32, ptr, ptr, ptr, ptr, ptr, i64 }

; Function Attrs: nounwind uwtable
define internal i32 @derive_mpi(ptr noundef %0, ptr noundef %1, ptr noundef %2, i64 noundef %3) #0 {
  %5 = alloca ptr, align 8
  %6 = alloca ptr, align 8
  %7 = alloca ptr, align 8
  %8 = alloca i64, align 8
  %9 = alloca i32, align 4
  %10 = alloca i64, align 8
  %11 = alloca i64, align 8
  store ptr %0, ptr %5, align 8, !tbaa !7
  store ptr %1, ptr %6, align 8, !tbaa !10
  store ptr %2, ptr %7, align 8, !tbaa !12
  store i64 %3, ptr %8, align 8, !tbaa !14
  call void @llvm.lifetime.start.p0(i64 4, ptr %9) #6
  store i32 -110, ptr %9, align 4, !tbaa !3
  call void @llvm.lifetime.start.p0(i64 8, ptr %10) #6
  %12 = load ptr, ptr %5, align 8, !tbaa !7
  %13 = getelementptr inbounds nuw %struct.mbedtls_ecp_group, ptr %12, i32 0, i32 7
  %14 = load i64, ptr %13, align 8, !tbaa !30
  %15 = add i64 %14, 7
  %16 = udiv i64 %15, 8
  store i64 %16, ptr %10, align 8, !tbaa !14
  call void @llvm.lifetime.start.p0(i64 8, ptr %11) #6
  %17 = load i64, ptr %8, align 8, !tbaa !14
  %18 = load i64, ptr %10, align 8, !tbaa !14
  %19 = icmp ugt i64 %17, %18
  br i1 %19, label %20, label %22

20:                                               ; preds = %4
  %21 = load i64, ptr %10, align 8, !tbaa !14
  br label %24

22:                                               ; preds = %4
  %23 = load i64, ptr %8, align 8, !tbaa !14
  br label %24

24:                                               ; preds = %22, %20
  %25 = phi i64 [ %21, %20 ], [ %23, %22 ]
  store i64 %25, ptr %11, align 8, !tbaa !14
  br label %26

26:                                               ; preds = %24
  %27 = load ptr, ptr %6, align 8, !tbaa !10
  %28 = load ptr, ptr %7, align 8, !tbaa !12
  %29 = load i64, ptr %11, align 8, !tbaa !14
  %30 = call i32 @mbedtls_mpi_read_binary(ptr noundef %27, ptr noundef %28, i64 noundef %29)
  store i32 %30, ptr %9, align 4, !tbaa !3
  %31 = icmp ne i32 %30, 0
  br i1 %31, label %32, label %33

32:                                               ; preds = %26
  br label %76

33:                                               ; preds = %26
  br label %34

34:                                               ; preds = %33
  br label %35

35:                                               ; preds = %34
  %36 = load i64, ptr %11, align 8, !tbaa !14
  %37 = mul i64 %36, 8
  %38 = load ptr, ptr %5, align 8, !tbaa !7
  %39 = getelementptr inbounds nuw %struct.mbedtls_ecp_group, ptr %38, i32 0, i32 7
  %40 = load i64, ptr %39, align 8, !tbaa !30
  %41 = icmp ugt i64 %37, %40
  br i1 %41, label %42, label %57

42:                                               ; preds = %35
  br label %43

43:                                               ; preds = %42
  %44 = load ptr, ptr %6, align 8, !tbaa !10
  %45 = load i64, ptr %11, align 8, !tbaa !14
  %46 = mul i64 %45, 8
  %47 = load ptr, ptr %5, align 8, !tbaa !7
  %48 = getelementptr inbounds nuw %struct.mbedtls_ecp_group, ptr %47, i32 0, i32 7
  %49 = load i64, ptr %48, align 8, !tbaa !30
  %50 = sub i64 %46, %49
  %51 = call i32 @mbedtls_mpi_shift_r(ptr noundef %44, i64 noundef %50)
  store i32 %51, ptr %9, align 4, !tbaa !3
  %52 = icmp ne i32 %51, 0
  br i1 %52, label %53, label %54

53:                                               ; preds = %43
  br label %76

54:                                               ; preds = %43
  br label %55

55:                                               ; preds = %54
  br label %56

56:                                               ; preds = %55
  br label %57

57:                                               ; preds = %56, %35
  %58 = load ptr, ptr %6, align 8, !tbaa !10
  %59 = load ptr, ptr %5, align 8, !tbaa !7
  %60 = getelementptr inbounds nuw %struct.mbedtls_ecp_group, ptr %59, i32 0, i32 5
  %61 = call i32 @mbedtls_mpi_cmp_mpi(ptr noundef %58, ptr noundef %60)
  %62 = icmp sge i32 %61, 0
  br i1 %62, label %63, label %75

63:                                               ; preds = %57
  br label %64

64:                                               ; preds = %63
  %65 = load ptr, ptr %6, align 8, !tbaa !10
  %66 = load ptr, ptr %6, align 8, !tbaa !10
  %67 = load ptr, ptr %5, align 8, !tbaa !7
  %68 = getelementptr inbounds nuw %struct.mbedtls_ecp_group, ptr %67, i32 0, i32 5
  %69 = call i32 @mbedtls_mpi_sub_mpi(ptr noundef %65, ptr noundef %66, ptr noundef %68)
  store i32 %69, ptr %9, align 4, !tbaa !3
  %70 = icmp ne i32 %69, 0
  br i1 %70, label %71, label %72

71:                                               ; preds = %64
  br label %76

72:                                               ; preds = %64
  br label %73

73:                                               ; preds = %72
  br label %74

74:                                               ; preds = %73
  br label %75

75:                                               ; preds = %74, %57
  br label %76

76:                                               ; preds = %75, %71, %53, %32
  %77 = load i32, ptr %9, align 4, !tbaa !3
  call void @llvm.lifetime.end.p0(i64 8, ptr %11) #6
  call void @llvm.lifetime.end.p0(i64 8, ptr %10) #6
  call void @llvm.lifetime.end.p0(i64 4, ptr %9) #6
  ret i32 %77
}