; Function Attrs: nounwind uwtable
define internal fastcc i32 @derive_mpi(ptr noundef %0, ptr noundef nonnull %1, ptr noundef %2, i64 noundef %3) unnamed_addr #1 {
  %5 = getelementptr inbounds nuw i8, ptr %0, i64 128
  %6 = load i64, ptr %5, align 8, !tbaa !19
  %7 = add i64 %6, 7
  %8 = lshr i64 %7, 3
  %9 = tail call i64 @llvm.umin.i64(i64 %3, i64 %8)
  %10 = tail call i32 @mbedtls_mpi_read_binary(ptr noundef nonnull %1, ptr noundef %2, i64 noundef %9) #7
  %.not = icmp eq i32 %10, 0
  br i1 %.not, label %11, label %24

11:                                               ; preds = %4
  %12 = shl nuw i64 %9, 3
  %13 = load i64, ptr %5, align 8, !tbaa !19
  %14 = icmp ugt i64 %12, %13
  br i1 %14, label %15, label %18

15:                                               ; preds = %11
  %16 = sub nuw i64 %12, %13
  %17 = tail call i32 @mbedtls_mpi_shift_r(ptr noundef nonnull %1, i64 noundef %16) #7
  %.not24 = icmp eq i32 %17, 0
  br i1 %.not24, label %18, label %24

18:                                               ; preds = %15, %11
  %19 = getelementptr inbounds nuw i8, ptr %0, i64 104
  %20 = tail call i32 @mbedtls_mpi_cmp_mpi(ptr noundef nonnull %1, ptr noundef nonnull %19) #7
  %21 = icmp sgt i32 %20, -1
  br i1 %21, label %22, label %24

22:                                               ; preds = %18
  %23 = tail call i32 @mbedtls_mpi_sub_mpi(ptr noundef nonnull %1, ptr noundef nonnull %1, ptr noundef nonnull %19) #7
  br label %24

24:                                               ; preds = %22, %18, %15, %4
  %.0 = phi i32 [ %10, %4 ], [ %17, %15 ], [ %23, %22 ], [ 0, %18 ]
  ret i32 %.0
}